target datalayout = "e-m:e-p270:32:32-p271:32:32-p272:64:64-i64:64-i128:128-f80:128-n8:16:32:64-S128"
target triple = "x86_64-unknown-linux-gnu"

%struct.ResFile = type { ptr, ptr, ptr, i32, i32, ptr, i32, i32 }

; Function Attrs: mustprogress nounwind uwtable
define dso_local void @_ZN7ResFile5closeEv(ptr noundef nonnull align 8 dereferenceable(48) %this) #4 align 2 {
entry:
  %this.addr = alloca ptr, align 8
  store ptr %this, ptr %this.addr, align 8
  %this1 = load ptr, ptr %this.addr, align 8
  %fBytes = getelementptr inbounds %struct.ResFile, ptr %this1, i32 0, i32 0
  %0 = load ptr, ptr %fBytes, align 8
  %isnull = icmp eq ptr %0, null
  br i1 %isnull, label %delete.end, label %delete.notnull

delete.notnull:                                   ; preds = %entry
  call void @_ZdaPv(ptr noundef %0) #17
  br label %delete.end

delete.end:                                       ; preds = %delete.notnull, %entry
  %fBytes2 = getelementptr inbounds %struct.ResFile, ptr %this1, i32 0, i32 0
  store ptr null, ptr %fBytes2, align 8
  %fStrings = getelementptr inbounds %struct.ResFile, ptr %this1, i32 0, i32 5
  %1 = load ptr, ptr %fStrings, align 8
  %isnull3 = icmp eq ptr %1, null
  br i1 %isnull3, label %delete.end5, label %delete.notnull4

delete.notnull4:                                  ; preds = %delete.end
  %vtable = load ptr, ptr %1, align 8
  %vfn = getelementptr inbounds ptr, ptr %vtable, i64 1
  %2 = load ptr, ptr %vfn, align 8
  call void %2(ptr noundef nonnull align 8 dereferenceable(72) %1) #3
  br label %delete.end5

delete.end5:                                      ; preds = %delete.notnull4, %delete.end
  %fStrings6 = getelementptr inbounds %struct.ResFile, ptr %this1, i32 0, i32 5
  store ptr null, ptr %fStrings6, align 8
  ret void
}