; Function Attrs: mustprogress nounwind uwtable
define dso_local void @_ZN7ResFile5closeEv(ptr nocapture noundef nonnull align 8 dereferenceable(48) %this) local_unnamed_addr #3 align 2 {
entry:
  %0 = load ptr, ptr %this, align 8
  %isnull = icmp eq ptr %0, null
  br i1 %isnull, label %delete.end, label %delete.notnull

delete.notnull:                                   ; preds = %entry
  tail call void @_ZdaPv(ptr noundef nonnull %0) #21
  br label %delete.end

delete.end:                                       ; preds = %delete.notnull, %entry
  store ptr null, ptr %this, align 8
  %fStrings = getelementptr inbounds i8, ptr %this, i64 32
  %1 = load ptr, ptr %fStrings, align 8
  %isnull3 = icmp eq ptr %1, null
  br i1 %isnull3, label %delete.end5, label %delete.notnull4

delete.notnull4:                                  ; preds = %delete.end
  %vtable = load ptr, ptr %1, align 8
  %vfn = getelementptr inbounds i8, ptr %vtable, i64 8
  %2 = load ptr, ptr %vfn, align 8
  tail call void %2(ptr noundef nonnull align 8 dereferenceable(72) %1) #18
  br label %delete.end5

delete.end5:                                      ; preds = %delete.notnull4, %delete.end
  store ptr null, ptr %fStrings, align 8
  ret void
}